target datalayout = "e-m:e-p270:32:32-p271:32:32-p272:64:64-i64:64-i128:128-f80:128-n8:16:32:64-S128"
target triple = "x86_64-pc-linux-gnu"

%struct.UList = type { ptr, ptr, ptr, i32 }
%struct.UListNode = type { ptr, ptr, ptr, i8 }

; Function Attrs: mustprogress nounwind uwtable
define ptr @ulist_getNext_77(ptr noundef %0) #5 {
  %2 = alloca ptr, align 8
  %3 = alloca ptr, align 8
  %4 = alloca ptr, align 8
  %5 = alloca i32, align 4
  store ptr %0, ptr %3, align 8, !tbaa !7
  call void @llvm.lifetime.start.p0(i64 8, ptr %4) #7
  store ptr null, ptr %4, align 8, !tbaa !19
  %6 = load ptr, ptr %3, align 8, !tbaa !7
  %7 = icmp eq ptr %6, null
  br i1 %7, label %13, label %8

8:                                                ; preds = %1
  %9 = load ptr, ptr %3, align 8, !tbaa !7
  %10 = getelementptr inbounds nuw %struct.UList, ptr %9, i32 0, i32 0
  %11 = load ptr, ptr %10, align 8, !tbaa !11
  %12 = icmp eq ptr %11, null
  br i1 %12, label %13, label %14

13:                                               ; preds = %8, %1
  store ptr null, ptr %2, align 8
  store i32 1, ptr %5, align 4
  br label %26

14:                                               ; preds = %8
  %15 = load ptr, ptr %3, align 8, !tbaa !7
  %16 = getelementptr inbounds nuw %struct.UList, ptr %15, i32 0, i32 0
  %17 = load ptr, ptr %16, align 8, !tbaa !11
  store ptr %17, ptr %4, align 8, !tbaa !19
  %18 = load ptr, ptr %4, align 8, !tbaa !19
  %19 = getelementptr inbounds nuw %struct.UListNode, ptr %18, i32 0, i32 1
  %20 = load ptr, ptr %19, align 8, !tbaa !23
  %21 = load ptr, ptr %3, align 8, !tbaa !7
  %22 = getelementptr inbounds nuw %struct.UList, ptr %21, i32 0, i32 0
  store ptr %20, ptr %22, align 8, !tbaa !11
  %23 = load ptr, ptr %4, align 8, !tbaa !19
  %24 = getelementptr inbounds nuw %struct.UListNode, ptr %23, i32 0, i32 0
  %25 = load ptr, ptr %24, align 8, !tbaa !20
  store ptr %25, ptr %2, align 8
  store i32 1, ptr %5, align 4
  br label %26

26:                                               ; preds = %14, %13
  call void @llvm.lifetime.end.p0(i64 8, ptr %4) #7
  %27 = load ptr, ptr %2, align 8
  ret ptr %27
}