; Function Attrs: mustprogress nofree norecurse nosync nounwind willreturn memory(read, argmem: readwrite, inaccessiblemem: none) uwtable
define ptr @ulist_getNext_77(ptr noundef %0) local_unnamed_addr #5 {
  %2 = icmp eq ptr %0, null
  br i1 %2, label %10, label %3

3:                                                ; preds = %1
  %4 = load ptr, ptr %0, align 8, !tbaa !23
  %5 = icmp eq ptr %4, null
  br i1 %5, label %10, label %6

6:                                                ; preds = %3
  %7 = getelementptr inbounds nuw i8, ptr %4, i64 8
  %8 = load ptr, ptr %7, align 8, !tbaa !17
  store ptr %8, ptr %0, align 8, !tbaa !23
  %9 = load ptr, ptr %4, align 8, !tbaa !7
  br label %10

10:                                               ; preds = %1, %3, %6
  %.0 = phi ptr [ %9, %6 ], [ null, %3 ], [ null, %1 ]
  ret ptr %.0
}